; Function Attrs: mustprogress uwtable
define internal void @"_ZNSt17_Function_handlerIFvN3sat7literalES1_S1_S1_EZNS0_14anf_simplifier12compile_aigsER10ptr_vectorINS0_6clauseEER7svectorISt4pairIS1_S1_EjERN2dd6solverEE3$_1E9_M_invokeERKSt9_Any_dataOS1_SL_SL_SL_"(ptr nocapture noundef nonnull readonly align 8 dereferenceable(16) %__functor, ptr nocapture noundef nonnull readonly align 4 dereferenceable(4) %__args, ptr nocapture noundef nonnull readonly align 4 dereferenceable(4) %__args1, ptr nocapture noundef nonnull readonly align 4 dereferenceable(4) %__args3, ptr nocapture noundef nonnull readonly align 4 dereferenceable(4) %__args5) #3 align 2 {
entry:
  %call.val = load ptr, ptr %__functor, align 8
  %0 = getelementptr inbounds i8, ptr %__functor, i64 8
  %call.val1 = load ptr, ptr %0, align 8
  %__args.val = load i32, ptr %__args, align 4
  %__args1.val = load i32, ptr %__args1, align 4
  %__args3.val = load i32, ptr %__args3, align 4
  %__args5.val = load i32, ptr %__args5, align 4
  tail call void @_ZN3sat14anf_simplifier6add_ifENS_7literalES1_S1_S1_RN2dd6solverE(ptr nonnull align 8 poison, i32 %__args.val, i32 %__args1.val, i32 %__args3.val, i32 %__args5.val, ptr noundef nonnull align 8 dereferenceable(208) %call.val1)
  %m_num_ifs.i.i.i = getelementptr inbounds i8, ptr %call.val, i64 48
  %1 = load i32, ptr %m_num_ifs.i.i.i, align 8
  %inc.i.i.i = add i32 %1, 1
  store i32 %inc.i.i.i, ptr %m_num_ifs.i.i.i, align 8
  ret void
}